target datalayout = "e-m:e-p270:32:32-p271:32:32-p272:64:64-i64:64-i128:128-f80:128-n8:16:32:64-S128"
target triple = "x86_64-pc-linux-gnu"

%struct._object = type { %union.anon, ptr }
%union.anon = type { i64 }
%struct._operator_state = type { ptr, ptr, ptr }
%struct.PyModuleObject = type { %struct._object, ptr, ptr, ptr, ptr, ptr }

@attrgetter_type_spec = internal global { ptr, i32, i32, i32, [4 x i8], ptr } { ptr @.str.61, i32 40, i32 0, i32 18688, [4 x i8] zeroinitializer, ptr @attrgetter_type_slots }, align 8
@itemgetter_type_spec = internal global { ptr, i32, i32, i32, [4 x i8], ptr } { ptr @.str.77, i32 48, i32 0, i32 18688, [4 x i8] zeroinitializer, ptr @itemgetter_type_slots }, align 8
@methodcaller_type_spec = internal global { ptr, i32, i32, i32, [4 x i8], ptr } { ptr @.str.84, i32 64, i32 0, i32 18688, [4 x i8] zeroinitializer, ptr @methodcaller_type_slots }, align 8

; Function Attrs: inlinehint nounwind uwtable
define internal ptr @_PyModule_GetState(ptr noundef %0) #3 {
  %2 = alloca ptr, align 8
  store ptr %0, ptr %2, align 8, !tbaa !4
  %3 = load ptr, ptr %2, align 8, !tbaa !4
  %4 = getelementptr inbounds nuw %struct.PyModuleObject, ptr %3, i32 0, i32 3
  %5 = load ptr, ptr %4, align 8, !tbaa !45
  ret ptr %5
}

; Function Attrs: inlinehint nounwind uwtable
define internal ptr @get_operator_state(ptr noundef %0) #3 {
  %2 = alloca ptr, align 8
  %3 = alloca ptr, align 8
  store ptr %0, ptr %2, align 8, !tbaa !4
  call void @llvm.lifetime.start.p0(i64 8, ptr %3) #7
  %4 = load ptr, ptr %2, align 8, !tbaa !4
  %5 = call ptr @_PyModule_GetState(ptr noundef %4)
  store ptr %5, ptr %3, align 8, !tbaa !9
  %6 = load ptr, ptr %3, align 8, !tbaa !9
  call void @llvm.lifetime.end.p0(i64 8, ptr %3) #7
  ret ptr %6
}

; Function Attrs: nounwind uwtable
define internal i32 @operator_exec(ptr noundef %0) #0 {
  %2 = alloca i32, align 4
  %3 = alloca ptr, align 8
  %4 = alloca ptr, align 8
  %5 = alloca i32, align 4
  store ptr %0, ptr %3, align 8, !tbaa !4
  call void @llvm.lifetime.start.p0(i64 8, ptr %4) #7
  %6 = load ptr, ptr %3, align 8, !tbaa !4
  %7 = call ptr @get_operator_state(ptr noundef %6)
  store ptr %7, ptr %4, align 8, !tbaa !9
  %8 = load ptr, ptr %3, align 8, !tbaa !4
  %9 = call ptr @PyType_FromModuleAndSpec(ptr noundef %8, ptr noundef @attrgetter_type_spec, ptr noundef null)
  %10 = load ptr, ptr %4, align 8, !tbaa !9
  %11 = getelementptr inbounds nuw %struct._operator_state, ptr %10, i32 0, i32 1
  store ptr %9, ptr %11, align 8, !tbaa !10
  %12 = load ptr, ptr %4, align 8, !tbaa !9
  %13 = getelementptr inbounds nuw %struct._operator_state, ptr %12, i32 0, i32 1
  %14 = load ptr, ptr %13, align 8, !tbaa !10
  %15 = icmp eq ptr %14, null
  br i1 %15, label %16, label %17

16:                                               ; preds = %1
  store i32 -1, ptr %2, align 4
  store i32 1, ptr %5, align 4
  br label %62

17:                                               ; preds = %1
  %18 = load ptr, ptr %3, align 8, !tbaa !4
  %19 = load ptr, ptr %4, align 8, !tbaa !9
  %20 = getelementptr inbounds nuw %struct._operator_state, ptr %19, i32 0, i32 1
  %21 = load ptr, ptr %20, align 8, !tbaa !10
  %22 = call i32 @PyModule_AddType(ptr noundef %18, ptr noundef %21)
  %23 = icmp slt i32 %22, 0
  br i1 %23, label %24, label %25

24:                                               ; preds = %17
  store i32 -1, ptr %2, align 4
  store i32 1, ptr %5, align 4
  br label %62

25:                                               ; preds = %17
  %26 = load ptr, ptr %3, align 8, !tbaa !4
  %27 = call ptr @PyType_FromModuleAndSpec(ptr noundef %26, ptr noundef @itemgetter_type_spec, ptr noundef null)
  %28 = load ptr, ptr %4, align 8, !tbaa !9
  %29 = getelementptr inbounds nuw %struct._operator_state, ptr %28, i32 0, i32 0
  store ptr %27, ptr %29, align 8, !tbaa !14
  %30 = load ptr, ptr %4, align 8, !tbaa !9
  %31 = getelementptr inbounds nuw %struct._operator_state, ptr %30, i32 0, i32 0
  %32 = load ptr, ptr %31, align 8, !tbaa !14
  %33 = icmp eq ptr %32, null
  br i1 %33, label %34, label %35

34:                                               ; preds = %25
  store i32 -1, ptr %2, align 4
  store i32 1, ptr %5, align 4
  br label %62

35:                                               ; preds = %25
  %36 = load ptr, ptr %3, align 8, !tbaa !4
  %37 = load ptr, ptr %4, align 8, !tbaa !9
  %38 = getelementptr inbounds nuw %struct._operator_state, ptr %37, i32 0, i32 0
  %39 = load ptr, ptr %38, align 8, !tbaa !14
  %40 = call i32 @PyModule_AddType(ptr noundef %36, ptr noundef %39)
  %41 = icmp slt i32 %40, 0
  br i1 %41, label %42, label %43

42:                                               ; preds = %35
  store i32 -1, ptr %2, align 4
  store i32 1, ptr %5, align 4
  br label %62

43:                                               ; preds = %35
  %44 = load ptr, ptr %3, align 8, !tbaa !4
  %45 = call ptr @PyType_FromModuleAndSpec(ptr noundef %44, ptr noundef @methodcaller_type_spec, ptr noundef null)
  %46 = load ptr, ptr %4, align 8, !tbaa !9
  %47 = getelementptr inbounds nuw %struct._operator_state, ptr %46, i32 0, i32 2
  store ptr %45, ptr %47, align 8, !tbaa !15
  %48 = load ptr, ptr %4, align 8, !tbaa !9
  %49 = getelementptr inbounds nuw %struct._operator_state, ptr %48, i32 0, i32 2
  %50 = load ptr, ptr %49, align 8, !tbaa !15
  %51 = icmp eq ptr %50, null
  br i1 %51, label %52, label %53

52:                                               ; preds = %43
  store i32 -1, ptr %2, align 4
  store i32 1, ptr %5, align 4
  br label %62

53:                                               ; preds = %43
  %54 = load ptr, ptr %3, align 8, !tbaa !4
  %55 = load ptr, ptr %4, align 8, !tbaa !9
  %56 = getelementptr inbounds nuw %struct._operator_state, ptr %55, i32 0, i32 2
  %57 = load ptr, ptr %56, align 8, !tbaa !15
  %58 = call i32 @PyModule_AddType(ptr noundef %54, ptr noundef %57)
  %59 = icmp slt i32 %58, 0
  br i1 %59, label %60, label %61

60:                                               ; preds = %53
  store i32 -1, ptr %2, align 4
  store i32 1, ptr %5, align 4
  br label %62

61:                                               ; preds = %53
  store i32 0, ptr %2, align 4
  store i32 1, ptr %5, align 4
  br label %62

62:                                               ; preds = %61, %60, %52, %42, %34, %24, %16
  call void @llvm.lifetime.end.p0(i64 8, ptr %4) #7
  %63 = load i32, ptr %2, align 4
  ret i32 %63
}