; Function Attrs: nounwind uwtable
define internal range(i32 -1, 1) i32 @operator_exec(ptr noundef %0) #0 {
  %2 = getelementptr i8, ptr %0, i64 32
  %.val = load ptr, ptr %2, align 8, !tbaa !4
  %3 = tail call ptr @PyType_FromModuleAndSpec(ptr noundef %0, ptr noundef nonnull @attrgetter_type_spec, ptr noundef null) #7
  %4 = getelementptr inbounds nuw i8, ptr %.val, i64 8
  store ptr %3, ptr %4, align 8, !tbaa !13
  %5 = icmp eq ptr %3, null
  br i1 %5, label %21, label %6

6:                                                ; preds = %1
  %7 = tail call i32 @PyModule_AddType(ptr noundef nonnull %0, ptr noundef nonnull %3) #7
  %8 = icmp slt i32 %7, 0
  br i1 %8, label %21, label %9

9:                                                ; preds = %6
  %10 = tail call ptr @PyType_FromModuleAndSpec(ptr noundef nonnull %0, ptr noundef nonnull @itemgetter_type_spec, ptr noundef null) #7
  store ptr %10, ptr %.val, align 8, !tbaa !15
  %11 = icmp eq ptr %10, null
  br i1 %11, label %21, label %12

12:                                               ; preds = %9
  %13 = tail call i32 @PyModule_AddType(ptr noundef nonnull %0, ptr noundef nonnull %10) #7
  %14 = icmp slt i32 %13, 0
  br i1 %14, label %21, label %15

15:                                               ; preds = %12
  %16 = tail call ptr @PyType_FromModuleAndSpec(ptr noundef nonnull %0, ptr noundef nonnull @methodcaller_type_spec, ptr noundef null) #7
  %17 = getelementptr inbounds nuw i8, ptr %.val, i64 16
  store ptr %16, ptr %17, align 8, !tbaa !16
  %18 = icmp eq ptr %16, null
  br i1 %18, label %21, label %19

19:                                               ; preds = %15
  %20 = tail call i32 @PyModule_AddType(ptr noundef nonnull %0, ptr noundef nonnull %16) #7
  %.lobit = ashr i32 %20, 31
  br label %21

21:                                               ; preds = %19, %15, %12, %9, %6, %1
  %.0 = phi i32 [ -1, %1 ], [ -1, %6 ], [ -1, %9 ], [ -1, %12 ], [ -1, %15 ], [ %.lobit, %19 ]
  ret i32 %.0
}